; Function Attrs: nounwind uwtable
define nonnull ptr @l_Std_DHashMap_Internal_AssocList_foldlM___at___private_Lean_Compiler_LCNF_JoinPoints_0__Lean_Compiler_LCNF_JoinPointFinder_eraseCandidate___spec__1(ptr noundef %0, ptr noundef %1, ptr noundef readnone captures(none) %2, ptr noundef %3, ptr noundef readnone captures(none) %4, ptr noundef readnone captures(none) %5, ptr noundef readnone captures(none) %6, ptr noundef readnone captures(none) %7, ptr noundef readnone captures(none) %8, ptr noundef %9) local_unnamed_addr #1 {
  br label %lean_dec.exit

lean_dec.exit:                                    ; preds = %lean_dec.exit.backedge, %10
  %.027 = phi ptr [ %9, %10 ], [ %53, %lean_dec.exit.backedge ]
  %.026 = phi ptr [ %1, %10 ], [ %40, %lean_dec.exit.backedge ]
  %.0 = phi ptr [ %0, %10 ], [ %43, %lean_dec.exit.backedge ]
  %11 = ptrtoint ptr %.026 to i64
  %12 = and i64 %11, 1
  %.not.i32 = icmp eq i64 %12, 0
  br i1 %.not.i32, label %16, label %13

13:                                               ; preds = %lean_dec.exit
  %14 = lshr i64 %11, 1
  %15 = trunc i64 %14 to i32
  br label %lean_obj_tag.exit

16:                                               ; preds = %lean_dec.exit
  %17 = getelementptr i8, ptr %.026, i64 4
  %.val.i = load i32, ptr %17, align 4
  %18 = lshr i32 %.val.i, 24
  br label %lean_obj_tag.exit

lean_obj_tag.exit:                                ; preds = %13, %16
  %.0.i = phi i32 [ %15, %13 ], [ %18, %16 ]
  %19 = icmp eq i32 %.0.i, 0
  br i1 %19, label %20, label %27

20:                                               ; preds = %lean_obj_tag.exit
  tail call void @lean_inc_heartbeat() #5
  %21 = tail call noalias ptr @mi_malloc_small(i64 noundef 24) #5
  %22 = icmp eq ptr %21, null
  br i1 %22, label %23, label %lean_alloc_ctor.exit

23:                                               ; preds = %20
  tail call void @lean_internal_panic_out_of_memory() #6
  unreachable

lean_alloc_ctor.exit:                             ; preds = %20
  %24 = getelementptr inbounds nuw i8, ptr %21, i64 4
  store i32 1, ptr %21, align 4, !tbaa !8
  store i32 131096, ptr %24, align 4
  %25 = getelementptr inbounds nuw i8, ptr %21, i64 8
  store ptr %.0, ptr %25, align 8, !tbaa !4
  %26 = getelementptr inbounds nuw i8, ptr %21, i64 16
  store ptr %.027, ptr %26, align 8, !tbaa !4
  ret ptr %21

27:                                               ; preds = %lean_obj_tag.exit
  %28 = ptrtoint ptr %.0 to i64
  %29 = and i64 %28, 1
  %.not = icmp eq i64 %29, 0
  br i1 %.not, label %30, label %lean_dec.exit29

30:                                               ; preds = %27
  %31 = load i32, ptr %.0, align 4, !tbaa !8
  %32 = icmp sgt i32 %31, 1
  br i1 %32, label %33, label %35, !prof !11

33:                                               ; preds = %30
  %34 = add nsw i32 %31, -1
  store i32 %34, ptr %.0, align 4, !tbaa !8
  br label %lean_dec.exit29

35:                                               ; preds = %30
  %.not.i = icmp eq i32 %31, 0
  br i1 %.not.i, label %lean_dec.exit29, label %36

36:                                               ; preds = %35
  tail call void @lean_dec_ref_cold(ptr noundef nonnull %.0) #5
  br label %lean_dec.exit29

lean_dec.exit29:                                  ; preds = %36, %35, %33, %27
  %37 = getelementptr inbounds nuw i8, ptr %.026, i64 8
  %38 = load ptr, ptr %37, align 8, !tbaa !4
  %39 = getelementptr inbounds nuw i8, ptr %.026, i64 24
  %40 = load ptr, ptr %39, align 8, !tbaa !4
  %41 = tail call ptr @l___private_Lean_Compiler_LCNF_JoinPoints_0__Lean_Compiler_LCNF_JoinPointFinder_eraseCandidate(ptr noundef %38, ptr noundef %2, ptr noundef %3, ptr noundef %4, ptr noundef %5, ptr noundef %6, ptr noundef %7, ptr noundef %8, ptr noundef %.027)
  %42 = getelementptr inbounds nuw i8, ptr %41, i64 8
  %43 = load ptr, ptr %42, align 8, !tbaa !4
  %44 = ptrtoint ptr %43 to i64
  %45 = and i64 %44, 1
  %.not38 = icmp eq i64 %45, 0
  br i1 %.not38, label %46, label %lean_inc.exit28

46:                                               ; preds = %lean_dec.exit29
  %.val.i33 = load i32, ptr %43, align 4, !tbaa !8
  %47 = icmp sgt i32 %.val.i33, 0
  br i1 %47, label %48, label %50, !prof !11

48:                                               ; preds = %46
  %49 = add nuw i32 %.val.i33, 1
  store i32 %49, ptr %43, align 4, !tbaa !8
  br label %lean_inc.exit28

50:                                               ; preds = %46
  %.not.i34 = icmp eq i32 %.val.i33, 0
  br i1 %.not.i34, label %lean_inc.exit28, label %51

51:                                               ; preds = %50
  tail call void @lean_inc_ref_cold(ptr noundef nonnull %43) #5
  br label %lean_inc.exit28

lean_inc.exit28:                                  ; preds = %51, %50, %48, %lean_dec.exit29
  %52 = getelementptr inbounds nuw i8, ptr %41, i64 16
  %53 = load ptr, ptr %52, align 8, !tbaa !4
  %54 = ptrtoint ptr %53 to i64
  %55 = and i64 %54, 1
  %.not39 = icmp eq i64 %55, 0
  br i1 %.not39, label %56, label %lean_inc.exit

56:                                               ; preds = %lean_inc.exit28
  %.val.i35 = load i32, ptr %53, align 4, !tbaa !8
  %57 = icmp sgt i32 %.val.i35, 0
  br i1 %57, label %58, label %60, !prof !11

58:                                               ; preds = %56
  %59 = add nuw i32 %.val.i35, 1
  store i32 %59, ptr %53, align 4, !tbaa !8
  br label %lean_inc.exit

60:                                               ; preds = %56
  %.not.i36 = icmp eq i32 %.val.i35, 0
  br i1 %.not.i36, label %lean_inc.exit, label %61

61:                                               ; preds = %60
  tail call void @lean_inc_ref_cold(ptr noundef nonnull %53) #5
  br label %lean_inc.exit

lean_inc.exit:                                    ; preds = %61, %60, %58, %lean_inc.exit28
  %62 = ptrtoint ptr %41 to i64
  %63 = and i64 %62, 1
  %.not40 = icmp eq i64 %63, 0
  br i1 %.not40, label %64, label %lean_dec.exit.backedge

64:                                               ; preds = %lean_inc.exit
  %65 = load i32, ptr %41, align 4, !tbaa !8
  %66 = icmp sgt i32 %65, 1
  br i1 %66, label %67, label %69, !prof !11

67:                                               ; preds = %64
  %68 = add nsw i32 %65, -1
  store i32 %68, ptr %41, align 4, !tbaa !8
  br label %lean_dec.exit.backedge

69:                                               ; preds = %64
  %.not.i30 = icmp eq i32 %65, 0
  br i1 %.not.i30, label %lean_dec.exit.backedge, label %70

70:                                               ; preds = %69
  tail call void @lean_dec_ref_cold(ptr noundef nonnull %41) #5
  br label %lean_dec.exit.backedge

lean_dec.exit.backedge:                           ; preds = %70, %69, %67, %lean_inc.exit
  br label %lean_dec.exit
}